target datalayout = "e-m:e-p270:32:32-p271:32:32-p272:64:64-i64:64-i128:128-f80:128-n8:16:32:64-S128"
target triple = "x86_64-pc-linux-gnu"

%struct.php_file_globals = type { i32, i64, i8, i64, ptr, ptr, ptr, ptr, ptr, ptr, ptr, i32, %struct.hostent, ptr, i64 }
%struct.hostent = type { ptr, ptr, i32, i32, ptr }
%struct._zend_array = type { %struct._zend_refcounted_h, %union.anon.0, i32, %union.anon.1, i32, i32, i32, i32, i64, ptr }
%struct._zend_refcounted_h = type { i32, %union.anon }
%union.anon = type { i32 }
%union.anon.0 = type { i32 }
%union.anon.1 = type { ptr }
%struct._zval_struct = type { %union._zend_value, %union.anon.3, %union.anon.6 }
%union._zend_value = type { i64 }
%union.anon.3 = type { i32 }
%union.anon.6 = type { i32 }
%struct._zend_string = type { %struct._zend_refcounted_h, i64, i64, [1 x i8] }

@file_globals = external global %struct.php_file_globals, align 8
@url_stream_wrappers_hash = internal global %struct._zend_array zeroinitializer, align 8

; Function Attrs: nounwind uwtable
define internal void @clone_wrapper_hash() #0 {
  %1 = alloca ptr, align 8
  %2 = call noalias ptr @_emalloc_56()
  store ptr %2, ptr getelementptr inbounds (%struct.php_file_globals, ptr @file_globals, i32 0, i32 8), align 8
  %3 = load ptr, ptr getelementptr inbounds (%struct.php_file_globals, ptr @file_globals, i32 0, i32 8), align 8
  store ptr @url_stream_wrappers_hash, ptr %1, align 8
  %4 = load ptr, ptr %1, align 8
  %5 = getelementptr inbounds %struct._zend_array, ptr %4, i32 0, i32 5
  %6 = load i32, ptr %5, align 4
  call void @_zend_hash_init(ptr noundef %3, i32 noundef %6, ptr noundef null, i1 noundef zeroext false)
  %7 = load ptr, ptr getelementptr inbounds (%struct.php_file_globals, ptr @file_globals, i32 0, i32 8), align 8
  call void @zend_hash_copy(ptr noundef %7, ptr noundef @url_stream_wrappers_hash, ptr noundef null)
  ret void
}

; Function Attrs: nounwind uwtable
define internal i32 @php_stream_wrapper_scheme_validate(ptr noundef %0, i32 noundef %1) #0 {
  %3 = alloca i32, align 4
  %4 = alloca ptr, align 8
  %5 = alloca i32, align 4
  %6 = alloca i32, align 4
  store ptr %0, ptr %4, align 8
  store i32 %1, ptr %5, align 4
  store i32 0, ptr %6, align 4
  br label %7

7:                                                ; preds = %52, %2
  %8 = load i32, ptr %6, align 4
  %9 = load i32, ptr %5, align 4
  %10 = icmp ult i32 %8, %9
  br i1 %10, label %11, label %55

11:                                               ; preds = %7
  %12 = call ptr @__ctype_b_loc() #19
  %13 = load ptr, ptr %12, align 8
  %14 = load ptr, ptr %4, align 8
  %15 = load i32, ptr %6, align 4
  %16 = zext i32 %15 to i64
  %17 = getelementptr inbounds i8, ptr %14, i64 %16
  %18 = load i8, ptr %17, align 1
  %19 = sext i8 %18 to i32
  %20 = sext i32 %19 to i64
  %21 = getelementptr inbounds i16, ptr %13, i64 %20
  %22 = load i16, ptr %21, align 2
  %23 = zext i16 %22 to i32
  %24 = and i32 %23, 8
  %25 = icmp ne i32 %24, 0
  br i1 %25, label %51, label %26

26:                                               ; preds = %11
  %27 = load ptr, ptr %4, align 8
  %28 = load i32, ptr %6, align 4
  %29 = zext i32 %28 to i64
  %30 = getelementptr inbounds i8, ptr %27, i64 %29
  %31 = load i8, ptr %30, align 1
  %32 = sext i8 %31 to i32
  %33 = icmp ne i32 %32, 43
  br i1 %33, label %34, label %51

34:                                               ; preds = %26
  %35 = load ptr, ptr %4, align 8
  %36 = load i32, ptr %6, align 4
  %37 = zext i32 %36 to i64
  %38 = getelementptr inbounds i8, ptr %35, i64 %37
  %39 = load i8, ptr %38, align 1
  %40 = sext i8 %39 to i32
  %41 = icmp ne i32 %40, 45
  br i1 %41, label %42, label %51

42:                                               ; preds = %34
  %43 = load ptr, ptr %4, align 8
  %44 = load i32, ptr %6, align 4
  %45 = zext i32 %44 to i64
  %46 = getelementptr inbounds i8, ptr %43, i64 %45
  %47 = load i8, ptr %46, align 1
  %48 = sext i8 %47 to i32
  %49 = icmp ne i32 %48, 46
  br i1 %49, label %50, label %51

50:                                               ; preds = %42
  store i32 -1, ptr %3, align 4
  br label %56

51:                                               ; preds = %42, %34, %26, %11
  br label %52

52:                                               ; preds = %51
  %53 = load i32, ptr %6, align 4
  %54 = add i32 %53, 1
  store i32 %54, ptr %6, align 4
  br label %7

55:                                               ; preds = %7
  store i32 0, ptr %3, align 4
  br label %56

56:                                               ; preds = %55, %50
  %57 = load i32, ptr %3, align 4
  ret i32 %57
}

; Function Attrs: nounwind uwtable
define i32 @php_register_url_stream_wrapper_volatile(ptr noundef %0, ptr noundef %1) #0 {
  %3 = alloca ptr, align 8
  %4 = alloca ptr, align 8
  %5 = alloca ptr, align 8
  %6 = alloca ptr, align 8
  %7 = alloca %struct._zval_struct, align 8
  %8 = alloca ptr, align 8
  %9 = alloca i32, align 4
  %10 = alloca ptr, align 8
  %11 = alloca ptr, align 8
  store ptr %0, ptr %10, align 8
  store ptr %1, ptr %11, align 8
  %12 = load ptr, ptr %10, align 8
  %13 = getelementptr inbounds %struct._zend_string, ptr %12, i32 0, i32 3
  %14 = getelementptr inbounds [1 x i8], ptr %13, i64 0, i64 0
  %15 = load ptr, ptr %10, align 8
  %16 = getelementptr inbounds %struct._zend_string, ptr %15, i32 0, i32 2
  %17 = load i64, ptr %16, align 8
  %18 = trunc i64 %17 to i32
  %19 = call i32 @php_stream_wrapper_scheme_validate(ptr noundef %14, i32 noundef %18)
  %20 = icmp eq i32 %19, -1
  br i1 %20, label %21, label %22

21:                                               ; preds = %2
  store i32 -1, ptr %9, align 4
  br label %48

22:                                               ; preds = %2
  %23 = load ptr, ptr getelementptr inbounds (%struct.php_file_globals, ptr @file_globals, i32 0, i32 8), align 8
  %24 = icmp ne ptr %23, null
  br i1 %24, label %26, label %25

25:                                               ; preds = %22
  call void @clone_wrapper_hash()
  br label %26

26:                                               ; preds = %25, %22
  %27 = load ptr, ptr getelementptr inbounds (%struct.php_file_globals, ptr @file_globals, i32 0, i32 8), align 8
  %28 = load ptr, ptr %10, align 8
  %29 = load ptr, ptr %11, align 8
  store ptr %27, ptr %4, align 8
  store ptr %28, ptr %5, align 8
  store ptr %29, ptr %6, align 8
  %30 = load ptr, ptr %6, align 8
  store ptr %30, ptr %7, align 8
  %31 = getelementptr inbounds %struct._zval_struct, ptr %7, i32 0, i32 1
  store i32 13, ptr %31, align 8
  %32 = load ptr, ptr %4, align 8
  %33 = load ptr, ptr %5, align 8
  %34 = call ptr @zend_hash_add(ptr noundef %32, ptr noundef %33, ptr noundef %7) #14
  store ptr %34, ptr %8, align 8
  %35 = load ptr, ptr %8, align 8
  %36 = icmp ne ptr %35, null
  br i1 %36, label %37, label %43

37:                                               ; preds = %26
  %38 = load ptr, ptr %8, align 8
  %39 = load ptr, ptr %38, align 8
  %40 = icmp ne ptr %39, null
  call void @llvm.assume(i1 %40)
  %41 = load ptr, ptr %8, align 8
  %42 = load ptr, ptr %41, align 8
  store ptr %42, ptr %3, align 8
  br label %44

43:                                               ; preds = %26
  store ptr null, ptr %3, align 8
  br label %44

44:                                               ; preds = %43, %37
  %45 = load ptr, ptr %3, align 8
  %46 = icmp ne ptr %45, null
  %47 = select i1 %46, i32 0, i32 -1
  store i32 %47, ptr %9, align 4
  br label %48

48:                                               ; preds = %44, %21
  %49 = load i32, ptr %9, align 4
  ret i32 %49
}