; Function Attrs: nounwind uwtable
define i32 @php_register_url_stream_wrapper_volatile(ptr noundef %0, ptr noundef %1) local_unnamed_addr #2 {
  %3 = alloca %struct._zval_struct, align 8
  %4 = getelementptr inbounds i8, ptr %0, i64 24
  %5 = getelementptr inbounds i8, ptr %0, i64 16
  %6 = load i64, ptr %5, align 8
  %7 = and i64 %6, 4294967295
  %.not.i = icmp eq i64 %7, 0
  br i1 %.not.i, label %.loopexit, label %.lr.ph.i

.lr.ph.i:                                         ; preds = %2
  %8 = tail call ptr @__ctype_b_loc() #31
  %9 = load ptr, ptr %8, align 8
  br label %10

10:                                               ; preds = %17, %.lr.ph.i
  %indvars.iv.i = phi i64 [ 0, %.lr.ph.i ], [ %indvars.iv.next.i, %17 ]
  %11 = getelementptr inbounds i8, ptr %4, i64 %indvars.iv.i
  %12 = load i8, ptr %11, align 1
  %13 = sext i8 %12 to i64
  %14 = getelementptr inbounds i16, ptr %9, i64 %13
  %15 = load i16, ptr %14, align 2
  %.fr18.i = freeze i16 %15
  %16 = and i16 %.fr18.i, 8
  %.not.not.i = icmp eq i16 %16, 0
  br i1 %.not.not.i, label %switch.early.test.i, label %17

switch.early.test.i:                              ; preds = %10
  switch i8 %12, label %php_stream_wrapper_scheme_validate.exit [
    i8 46, label %17
    i8 45, label %17
    i8 43, label %17
  ]

17:                                               ; preds = %switch.early.test.i, %switch.early.test.i, %switch.early.test.i, %10
  %indvars.iv.next.i = add nuw nsw i64 %indvars.iv.i, 1
  %exitcond.not.i = icmp eq i64 %indvars.iv.next.i, %7
  br i1 %exitcond.not.i, label %.loopexit, label %10

.loopexit:                                        ; preds = %17, %2
  %18 = load ptr, ptr getelementptr inbounds (%struct.php_file_globals, ptr @file_globals, i64 0, i32 8), align 8
  %.not = icmp eq ptr %18, null
  br i1 %.not, label %19, label %23

19:                                               ; preds = %.loopexit
  %20 = tail call noalias ptr @_emalloc_56() #27
  store ptr %20, ptr getelementptr inbounds (%struct.php_file_globals, ptr @file_globals, i64 0, i32 8), align 8
  %21 = load i32, ptr getelementptr inbounds (%struct._zend_array, ptr @url_stream_wrappers_hash, i64 0, i32 5), align 4
  tail call void @_zend_hash_init(ptr noundef %20, i32 noundef %21, ptr noundef null, i1 noundef zeroext false) #27
  %22 = load ptr, ptr getelementptr inbounds (%struct.php_file_globals, ptr @file_globals, i64 0, i32 8), align 8
  tail call void @zend_hash_copy(ptr noundef %22, ptr noundef nonnull @url_stream_wrappers_hash, ptr noundef null) #27
  %.pre = load ptr, ptr getelementptr inbounds (%struct.php_file_globals, ptr @file_globals, i64 0, i32 8), align 8
  br label %23

23:                                               ; preds = %19, %.loopexit
  %24 = phi ptr [ %.pre, %19 ], [ %18, %.loopexit ]
  store ptr %1, ptr %3, align 8
  %25 = getelementptr inbounds i8, ptr %3, i64 8
  store i32 13, ptr %25, align 8
  %26 = call ptr @zend_hash_add(ptr noundef %24, ptr noundef nonnull %0, ptr noundef nonnull %3) #27
  %.not13 = icmp eq ptr %26, null
  %27 = sext i1 %.not13 to i32
  br label %php_stream_wrapper_scheme_validate.exit

php_stream_wrapper_scheme_validate.exit:          ; preds = %switch.early.test.i, %23
  %.011 = phi i32 [ %27, %23 ], [ -1, %switch.early.test.i ]
  ret i32 %.011
}